# SymbolsHelper-Confirmed: 3.1.0 amd64
libqinfinity.so.3 libqinfinity3 #MINVER#
 _Z29qinf_text_abstract_buffer_newPKcPN9QInfinity18AbstractTextBufferE@Base 3.1.0
 _ZN10QByteArrayD1Ev@Base 3.1.0
 _ZN10QByteArrayD2Ev@Base 3.1.0
 (optional=templinst)_ZN11QLinkedListIPN9QInfinity8InfEventEE13detach_helperEv@Base 3.1.0
 (optional=templinst)_ZN11QLinkedListIPN9QInfinity8InfEventEED1Ev@Base 3.1.0
 (optional=templinst)_ZN11QLinkedListIPN9QInfinity8InfEventEED2Ev@Base 3.1.0
 (optional=templinst)_ZN5QHashIP8_GObjectPN9QInfinity8QGObjectEE11deleteNode2EPN9QHashData4NodeE@Base 3.1.0
 (optional=templinst)_ZN5QHashIP8_GObjectPN9QInfinity8QGObjectEE13detach_helperEv@Base 3.1.0
 (optional=templinst)_ZN5QHashIP8_GObjectPN9QInfinity8QGObjectEE13duplicateNodeEPN9QHashData4NodeEPv@Base 3.1.0
 (optional=templinst)_ZN5QHashIP8_GObjectPN9QInfinity8QGObjectEE6removeERKS1_@Base 3.1.0
 (optional=templinst)_ZN5QHashIPN9QInfinity4UserEPNS0_8UserItemEE11deleteNode2EPN9QHashData4NodeE@Base 3.1.0
 (optional=templinst)_ZN5QHashIPN9QInfinity4UserEPNS0_8UserItemEE13detach_helperEv@Base 3.1.0
 (optional=templinst)_ZN5QHashIPN9QInfinity4UserEPNS0_8UserItemEE13duplicateNodeEPN9QHashData4NodeEPv@Base 3.1.0
 (optional=templinst)_ZN5QHashIPN9QInfinity4UserEPNS0_8UserItemEE6removeERKS2_@Base 3.1.0
 (optional=templinst)_ZN5QHashIPN9QInfinity7BrowserEPNS0_15ConnectionIndexEE11deleteNode2EPN9QHashData4NodeE@Base 3.1.0
 (optional=templinst)_ZN5QHashIPN9QInfinity7BrowserEPNS0_15ConnectionIndexEE13detach_helperEv@Base 3.1.0
 (optional=templinst)_ZN5QHashIPN9QInfinity7BrowserEPNS0_15ConnectionIndexEE13duplicateNodeEPN9QHashData4NodeEPv@Base 3.1.0
 (optional=templinst)_ZN5QHashIPN9QInfinity7BrowserEPNS0_15ConnectionIndexEE6removeERKS2_@Base 3.1.0
 (optional=templinst)_ZN5QHashIPN9QInfinity7BrowserEPNS0_15ConnectionIndexEED1Ev@Base 3.1.0
 (optional=templinst)_ZN5QHashIPN9QInfinity7BrowserEPNS0_15ConnectionIndexEED2Ev@Base 3.1.0
 (optional=templinst)_ZN5QHashIiPN9QInfinity9QtIoWatchEE11deleteNode2EPN9QHashData4NodeE@Base 3.1.0
 (optional=templinst)_ZN5QHashIiPN9QInfinity9QtIoWatchEE13detach_helperEv@Base 3.1.0
 (optional=templinst)_ZN5QHashIiPN9QInfinity9QtIoWatchEE13duplicateNodeEPN9QHashData4NodeEPv@Base 3.1.0
 (optional=templinst)_ZN5QHashIiPN9QInfinity9QtIoWatchEED1Ev@Base 3.1.0
 (optional=templinst)_ZN5QHashIiPN9QInfinity9QtIoWatchEED2Ev@Base 3.1.0
 (optional=templinst)_ZN5QHashIjPN9QInfinity8NodeItemEE11deleteNode2EPN9QHashData4NodeE@Base 3.1.0
 (optional=templinst)_ZN5QHashIjPN9QInfinity8NodeItemEE13detach_helperEv@Base 3.1.0
 (optional=templinst)_ZN5QHashIjPN9QInfinity8NodeItemEE13duplicateNodeEPN9QHashData4NodeEPv@Base 3.1.0
 (optional=templinst)_ZN5QHashIjPN9QInfinity8NodeItemEE6removeERKj@Base 3.1.0
 (optional=templinst)_ZN5QListI7QStringE13detach_helperEi@Base 3.1.0
 (optional=templinst)_ZN5QListI7QStringE13detach_helperEv@Base 3.1.0
 (optional=templinst)_ZN5QListI7QStringE18detach_helper_growEii@Base 3.1.0
 (optional=templinst)_ZN5QListI7QStringE6appendERKS0_@Base 3.1.0
 (optional=templinst)_ZN5QListI7QStringED1Ev@Base 3.1.0
 (optional=templinst)_ZN5QListI7QStringED2Ev@Base 3.1.0
 (optional=templinst)_ZN5QListI8QPointerIN9QInfinity4UserEEE13detach_helperEi@Base 3.1.0
 (optional=templinst)_ZN5QListI8QPointerIN9QInfinity4UserEEE13detach_helperEv@Base 3.1.0
 (optional=templinst)_ZN5QListI8QPointerIN9QInfinity4UserEEE18detach_helper_growEii@Base 3.1.0
 (optional=templinst)_ZN5QListI8QPointerIN9QInfinity4UserEEE6appendERKS3_@Base 3.1.0
 (optional=templinst)_ZN5QListI8QPointerIN9QInfinity4UserEEED1Ev@Base 3.1.0
 (optional=templinst)_ZN5QListI8QPointerIN9QInfinity4UserEEED2Ev@Base 3.1.0
 (optional=templinst)_ZN5QListIP13QStandardItemE18detach_helper_growEii@Base 3.1.0
 (optional=templinst)_ZN5QListIP13QStandardItemE6appendERKS1_@Base 3.1.0
 (optional=templinst)_ZN5QListIP13QStandardItemED1Ev@Base 3.1.0
 (optional=templinst)_ZN5QListIP13QStandardItemED2Ev@Base 3.1.0
 (optional=templinst)_ZN5QListIPN9QInfinity10NotePluginEE13detach_helperEv@Base 3.1.0
 (optional=templinst)_ZN5QListIPN9QInfinity10NotePluginEE18detach_helper_growEii@Base 3.1.0
 (optional=templinst)_ZN5QListIPN9QInfinity10NotePluginEE6appendERKS2_@Base 3.1.0
 (optional=templinst)_ZN5QListIPN9QInfinity10NotePluginEED1Ev@Base 3.1.0
 (optional=templinst)_ZN5QListIPN9QInfinity10NotePluginEED2Ev@Base 3.1.0
 (optional=templinst)_ZN5QListIPN9QInfinity15ConnectionIndexEE13detach_helperEi@Base 3.1.0
 (optional=templinst)_ZN5QListIPN9QInfinity15ConnectionIndexEE13detach_helperEv@Base 3.1.0
 (optional=templinst)_ZN5QListIPN9QInfinity15ConnectionIndexEE18detach_helper_growEii@Base 3.1.0
 (optional=templinst)_ZN5QListIPN9QInfinity15ConnectionIndexEE6appendERKS2_@Base 3.1.0
 (optional=templinst)_ZN5QListIPN9QInfinity15ConnectionIndexEED1Ev@Base 3.1.0
 (optional=templinst)_ZN5QListIPN9QInfinity15ConnectionIndexEED2Ev@Base 3.1.0
 (optional=templinst)_ZN5QListIPN9QInfinity7BrowserEE13detach_helperEi@Base 3.1.0
 (optional=templinst)_ZN5QListIPN9QInfinity7BrowserEE18detach_helper_growEii@Base 3.1.0
 (optional=templinst)_ZN5QListIPN9QInfinity7BrowserEE6appendERKS2_@Base 3.1.0
 (optional=templinst)_ZN5QListIPN9QInfinity9QtIoWatchEE13detach_helperEi@Base 3.1.0
 (optional=templinst)_ZN5QListIPN9QInfinity9QtIoWatchEE13detach_helperEv@Base 3.1.0
 (optional=templinst)_ZN5QListIPN9QInfinity9QtIoWatchEE18detach_helper_growEii@Base 3.1.0
 (optional=templinst)_ZN5QListIPN9QInfinity9QtIoWatchEE6appendERKS2_@Base 3.1.0
 (optional=templinst)_ZN5QListIPN9QInfinity9QtIoWatchEED1Ev@Base 3.1.0
 (optional=templinst)_ZN5QListIPN9QInfinity9QtIoWatchEED2Ev@Base 3.1.0
 _ZN6QDebugD1Ev@Base 3.1.0
 _ZN6QDebugD2Ev@Base 3.1.0
 _ZN7QStringD1Ev@Base 3.1.0
 _ZN7QStringD2Ev@Base 3.1.0
 (optional=templinst)_ZN8QPointerIN9QInfinity4UserEED1Ev@Base 3.1.0
 (optional=templinst)_ZN8QPointerIN9QInfinity4UserEED2Ev@Base 3.1.0
 _ZN9QInfinity10NotePlugin11setUserDataEPv@Base 3.1.0
 _ZN9QInfinity10NotePlugin17create_session_cbEP6_InfIoP24_InfCommunicationManager17_InfSessionStatusP28_InfCommunicationJoinedGroupP17_InfXmlConnectionPv@Base 3.1.0
 _ZN9QInfinity10NotePlugin9infPluginEv@Base 3.1.0
 _ZN9QInfinity10NotePluginC1E7QStringP7QObject@Base 3.1.0
 _ZN9QInfinity10NotePluginC2E7QStringP7QObject@Base 3.1.0
 _ZN9QInfinity10NotePluginD0Ev@Base 3.1.0
 _ZN9QInfinity10NotePluginD1Ev@Base 3.1.0
 _ZN9QInfinity10NotePluginD2Ev@Base 3.1.0
 _ZN9QInfinity10TextBuffer10insertTextEjRK10QByteArrayjPNS_4UserE@Base 3.1.0
 _ZN9QInfinity10TextBuffer10textErasedEjj8QPointerINS_4UserEE@Base 3.1.0
 _ZN9QInfinity10TextBuffer11insertChunkEjRKNS_9TextChunkEPNS_4UserE@Base 3.1.0
 _ZN9QInfinity10TextBuffer11qt_metacallEN11QMetaObject4CallEiPPv@Base 3.1.0
 _ZN9QInfinity10TextBuffer11qt_metacastEPKc@Base 3.1.0
 _ZN9QInfinity10TextBuffer12textInsertedEjRKNS_9TextChunkE8QPointerINS_4UserEE@Base 3.1.0
 _ZN9QInfinity10TextBuffer14emitTextErasedEjjP8_InfUser@Base 3.1.0
 _ZN9QInfinity10TextBuffer14text_erased_cbEP14_InfTextBufferjjP8_InfUserPv@Base 3.1.0
 _ZN9QInfinity10TextBuffer16emitTextInsertedEjP13_InfTextChunkP8_InfUser@Base 3.1.0
 _ZN9QInfinity10TextBuffer16staticMetaObjectE@Base 3.1.0
 _ZN9QInfinity10TextBuffer16text_inserted_cbEP14_InfTextBufferjP13_InfTextChunkP8_InfUserPv@Base 3.1.0
 _ZN9QInfinity10TextBuffer4wrapEP14_InfTextBufferP7QObjectb@Base 3.1.0
 _ZN9QInfinity10TextBuffer5sliceEjj@Base 3.1.0
 _ZN9QInfinity10TextBuffer6lengthEv@Base 3.1.0
 _ZN9QInfinity10TextBuffer8encodingEv@Base 3.1.0
 _ZN9QInfinity10TextBuffer9eraseTextEjjPNS_4UserE@Base 3.1.0
 _ZN9QInfinity10TextBufferC1EP14_InfTextBufferP7QObjectb@Base 3.1.0
 _ZN9QInfinity10TextBufferC2EP14_InfTextBufferP7QObjectb@Base 3.1.0
 _ZN9QInfinity10TextBufferD0Ev@Base 3.1.0
 _ZN9QInfinity10TextBufferD1Ev@Base 3.1.0
 _ZN9QInfinity10TextBufferD2Ev@Base 3.1.0
 _ZN9QInfinity10UsersModel10insertUserEPNS_4UserE@Base 3.1.0
 _ZN9QInfinity10UsersModel10removeUserEPNS_4UserE@Base 3.1.0
 _ZN9QInfinity10UsersModel10setFactoryEPNS_15UserItemFactoryE@Base 3.1.0
 _ZN9QInfinity10UsersModel11qt_metacallEN11QMetaObject4CallEiPPv@Base 3.1.0
 _ZN9QInfinity10UsersModel11qt_metacastEPKc@Base 3.1.0
 _ZN9QInfinity10UsersModel16staticMetaObjectE@Base 3.1.0
 _ZN9QInfinity10UsersModelC1ERNS_7SessionEPNS_15UserItemFactoryEP7QObject@Base 3.1.0
 _ZN9QInfinity10UsersModelC2ERNS_7SessionEPNS_15UserItemFactoryEP7QObject@Base 3.1.0
 _ZN9QInfinity10UsersModelD0Ev@Base 3.1.0
 _ZN9QInfinity10UsersModelD1Ev@Base 3.1.0
 _ZN9QInfinity10UsersModelD2Ev@Base 3.1.0
 _ZN9QInfinity11AdoptedUser11qt_metacallEN11QMetaObject4CallEiPPv@Base 3.1.0
 _ZN9QInfinity11AdoptedUser11qt_metacastEPKc@Base 3.1.0
 _ZN9QInfinity11AdoptedUser16staticMetaObjectE@Base 3.1.0
 _ZN9QInfinity11AdoptedUser4wrapEP15_InfAdoptedUserP7QObjectb@Base 3.1.0
 _ZN9QInfinity11AdoptedUserC1EP15_InfAdoptedUserP7QObjectb@Base 3.1.0
 _ZN9QInfinity11AdoptedUserC2EP15_InfAdoptedUserP7QObjectb@Base 3.1.0
 _ZN9QInfinity11AdoptedUserD0Ev@Base 3.1.0
 _ZN9QInfinity11AdoptedUserD1Ev@Base 3.1.0
 _ZN9QInfinity11AdoptedUserD2Ev@Base 3.1.0
 _ZN9QInfinity11BrowserIter10isExploredEv@Base 3.1.0
 _ZN9QInfinity11BrowserIter11isDirectoryEv@Base 3.1.0
 _ZN9QInfinity11BrowserIter14infBrowserIterEv@Base 3.1.0
 _ZN9QInfinity11BrowserIter4nextEv@Base 3.1.0
 _ZN9QInfinity11BrowserIter4prevEv@Base 3.1.0
 _ZN9QInfinity11BrowserIter5childEv@Base 3.1.0
 _ZN9QInfinity11BrowserIter6parentEv@Base 3.1.0
 _ZN9QInfinity11BrowserIter7exploreEv@Base 3.1.0
 _ZN9QInfinity11BrowserIter8noteTypeEv@Base 3.1.0
 _ZN9QInfinity11BrowserIterC1EPK16_InfcBrowserIterP12_InfcBrowser@Base 3.1.0
 _ZN9QInfinity11BrowserIterC1ERKNS_7BrowserE@Base 3.1.0
 _ZN9QInfinity11BrowserIterC1ERKS0_@Base 3.1.0
 _ZN9QInfinity11BrowserIterC2EPK16_InfcBrowserIterP12_InfcBrowser@Base 3.1.0
 _ZN9QInfinity11BrowserIterC2ERKNS_7BrowserE@Base 3.1.0
 _ZN9QInfinity11BrowserIterC2ERKS0_@Base 3.1.0
 _ZN9QInfinity11BrowserIteraSERKS0_@Base 3.1.0
 _ZN9QInfinity11BrowserItermmEi@Base 3.1.0
 _ZN9QInfinity11BrowserItermmEv@Base 3.1.0
 _ZN9QInfinity11BrowserIterppEi@Base 3.1.0
 _ZN9QInfinity11BrowserIterppEv@Base 3.1.0
 _ZN9QInfinity11NodeRequest11finished_cbEP12_InfcRequestP16_InfcBrowserIterPv@Base 3.1.0
 _ZN9QInfinity11NodeRequest11qt_metacallEN11QMetaObject4CallEiPPv@Base 3.1.0
 _ZN9QInfinity11NodeRequest11qt_metacastEPKc@Base 3.1.0
 _ZN9QInfinity11NodeRequest14signalFinishedEv@Base 3.1.0
 _ZN9QInfinity11NodeRequest16staticMetaObjectE@Base 3.1.0
 _ZN9QInfinity11NodeRequest4wrapEP16_InfcNodeRequestP7QObjectb@Base 3.1.0
 _ZN9QInfinity11NodeRequest8finishedEPS0_@Base 3.1.0
 _ZN9QInfinity11NodeRequestC1EP16_InfcNodeRequestP7QObject@Base 3.1.0
 _ZN9QInfinity11NodeRequestC2EP16_InfcNodeRequestP7QObject@Base 3.1.0
 _ZN9QInfinity11NodeRequestD0Ev@Base 3.1.0
 _ZN9QInfinity11NodeRequestD1Ev@Base 3.1.0
 _ZN9QInfinity11NodeRequestD2Ev@Base 3.1.0
 _ZN9QInfinity11TextSession4wrapEP15_InfTextSessionP7QObjectb@Base 3.1.0
 _ZN9QInfinity11TextSession8joinUserE8QPointerINS_12SessionProxyEERS0_RK7QStringdjNS_4User6StatusE@Base 3.1.0
 _ZN9QInfinity11TextSessionC1EP15_InfTextSessionP7QObjectb@Base 3.1.0
 _ZN9QInfinity11TextSessionC1ERNS_20CommunicationManagerERNS_10TextBufferENS_7Session6StatusERNS_24CommunicationJoinedGroupERNS_13XmlConnectionE@Base 3.1.0
 _ZN9QInfinity11TextSessionC2EP15_InfTextSessionP7QObjectb@Base 3.1.0
 _ZN9QInfinity11TextSessionC2ERNS_20CommunicationManagerERNS_10TextBufferENS_7Session6StatusERNS_24CommunicationJoinedGroupERNS_13XmlConnectionE@Base 3.1.0
 _ZN9QInfinity11TextSessionD0Ev@Base 3.1.0
 _ZN9QInfinity11TextSessionD1Ev@Base 3.1.0
 _ZN9QInfinity11TextSessionD2Ev@Base 3.1.0
 _ZN9QInfinity11UserRequest11finished_cbEP16_InfcUserRequestP8_InfUserPv@Base 3.1.0
 _ZN9QInfinity11UserRequest11qt_metacallEN11QMetaObject4CallEiPPv@Base 3.1.0
 _ZN9QInfinity11UserRequest11qt_metacastEPKc@Base 3.1.0
 _ZN9QInfinity11UserRequest13emit_finishedE8QPointerINS_4UserEE@Base 3.1.0
 _ZN9QInfinity11UserRequest16staticMetaObjectE@Base 3.1.0
 _ZN9QInfinity11UserRequest8finishedE8QPointerINS_4UserEE@Base 3.1.0
 _ZN9QInfinity11UserRequestC1EP16_InfcUserRequestP7QObject@Base 3.1.0
 _ZN9QInfinity11UserRequestC2EP16_InfcUserRequestP7QObject@Base 3.1.0
 _ZN9QInfinity11UserRequestD0Ev@Base 3.1.0
 _ZN9QInfinity11UserRequestD1Ev@Base 3.1.0
 _ZN9QInfinity11UserRequestD2Ev@Base 3.1.0
 _ZN9QInfinity12BrowserModel10createNoteERK11QModelIndexRNS_10NotePluginERK7QString@Base 3.1.0
 _ZN9QInfinity12BrowserModel10removeRowsEiiRK11QModelIndex@Base 3.1.0
 _ZN9QInfinity12BrowserModel11qt_metacallEN11QMetaObject4CallEiPPv@Base 3.1.0
 _ZN9QInfinity12BrowserModel11qt_metacastEPKc@Base 3.1.0
 _ZN9QInfinity12BrowserModel12browserAddedERNS_7BrowserE@Base 3.1.0
 _ZN9QInfinity12BrowserModel13addConnectionEPNS_13XmlConnectionERK7QString@Base 3.1.0
 _ZN9QInfinity12BrowserModel13createBrowserERNS_20CommunicationManagerEPNS_13XmlConnectionE@Base 3.1.0
 _ZN9QInfinity12BrowserModel13itemActivatedERK11QModelIndex@Base 3.1.0
 _ZN9QInfinity12BrowserModel13slotNodeAddedERKNS_11BrowserIterE@Base 3.1.0
 _ZN9QInfinity12BrowserModel14deleteNodeItemEPNS_8NodeItemE@Base 3.1.0
 _ZN9QInfinity12BrowserModel14setItemFactoryEPNS_18BrowserItemFactoryE@Base 3.1.0
 _ZN9QInfinity12BrowserModel15connectionAddedEPNS_13XmlConnectionE@Base 3.1.0
 _ZN9QInfinity12BrowserModel15createDirectoryERK11QModelIndexRK7QString@Base 3.1.0
 _ZN9QInfinity12BrowserModel15removeIterIndexERKNS_11BrowserIterERNS_7BrowserE@Base 3.1.0
 _ZN9QInfinity12BrowserModel15slotNodeRemovedERKNS_11BrowserIterE@Base 3.1.0
 _ZN9QInfinity12BrowserModel16staticMetaObjectE@Base 3.1.0
 _ZN9QInfinity12BrowserModel17connectionRemovedEPNS_13XmlConnectionE@Base 3.1.0
 _ZN9QInfinity12BrowserModel19itemFromBrowserIterERKNS_11BrowserIterERNS_7BrowserE@Base 3.1.0
 _ZN9QInfinity12BrowserModel20communicationManagerEv@Base 3.1.0
 _ZN9QInfinity12BrowserModel20removeConnectionItemEPNS_14ConnectionItemE@Base 3.1.0
 _ZN9QInfinity12BrowserModel9addPluginERNS_10NotePluginE@Base 3.1.0
 _ZN9QInfinity12BrowserModel9indexIterERKNS_11BrowserIterERNS_7BrowserERNS_8NodeItemE@Base 3.1.0
 _ZN9QInfinity12BrowserModelC1EP7QObject@Base 3.1.0
 _ZN9QInfinity12BrowserModelC1EPNS_18BrowserItemFactoryEP7QObject@Base 3.1.0
 _ZN9QInfinity12BrowserModelC2EP7QObject@Base 3.1.0
 _ZN9QInfinity12BrowserModelC2EPNS_18BrowserItemFactoryEP7QObject@Base 3.1.0
 _ZN9QInfinity12BrowserModelD0Ev@Base 3.1.0
 _ZN9QInfinity12BrowserModelD1Ev@Base 3.1.0
 _ZN9QInfinity12BrowserModelD2Ev@Base 3.1.0
 _ZN9QInfinity12SessionProxy4wrapEP17_InfcSessionProxyP7QObjectb@Base 3.1.0
 _ZN9QInfinity12SessionProxy8joinUserEPK11_GParameterjPP7_GError@Base 3.1.0
 _ZN9QInfinity12SessionProxyC1EP17_InfcSessionProxyP7QObjectb@Base 3.1.0
 _ZN9QInfinity12SessionProxyC2EP17_InfcSessionProxyP7QObjectb@Base 3.1.0
 _ZN9QInfinity12SessionProxyD0Ev@Base 3.1.0
 _ZN9QInfinity12SessionProxyD1Ev@Base 3.1.0
 _ZN9QInfinity12SessionProxyD2Ev@Base 3.1.0
 _ZN9QInfinity12UndoGrouping10beginGroupEv@Base 3.1.0
 _ZN9QInfinity12UndoGrouping10initializeEPKNS_7SessionEPKNS_4UserE@Base 3.1.0
 _ZN9QInfinity12UndoGrouping4wrapEP20_InfTextUndoGroupingP7QObjectb@Base 3.1.0
 _ZN9QInfinity12UndoGrouping8endGroupEv@Base 3.1.0
 _ZN9QInfinity12UndoGroupingC1EP20_InfTextUndoGroupingP7QObjectb@Base 3.1.0
 _ZN9QInfinity12UndoGroupingC2EP20_InfTextUndoGroupingP7QObjectb@Base 3.1.0
 _ZN9QInfinity12UndoGroupingD0Ev@Base 3.1.0
 _ZN9QInfinity12UndoGroupingD1Ev@Base 3.1.0
 _ZN9QInfinity12UndoGroupingD2Ev@Base 3.1.0
 _ZN9QInfinity12WrapperStore10getWrapperEP8_GObjectb@Base 3.1.0
 _ZN9QInfinity12WrapperStore11findWrapperEP8_GObjectb@Base 3.1.0
 _ZN9QInfinity12WrapperStore11qt_metacallEN11QMetaObject4CallEiPPv@Base 3.1.0
 _ZN9QInfinity12WrapperStore11qt_metacastEPKc@Base 3.1.0
 _ZN9QInfinity12WrapperStore12storeWrapperEPNS_8QGObjectE@Base 3.1.0
 _ZN9QInfinity12WrapperStore13insertWrapperEPNS_8QGObjectE@Base 3.1.0
 _ZN9QInfinity12WrapperStore13removeWrapperEPNS_8QGObjectE@Base 3.1.0
 _ZN9QInfinity12WrapperStore16staticMetaObjectE@Base 3.1.0
 _ZN9QInfinity12WrapperStore18slotWrapperDeletedEPNS_8QGObjectE@Base 3.1.0
 _ZN9QInfinity12WrapperStore8instanceEv@Base 3.1.0
 _ZN9QInfinity12WrapperStoreC1Ev@Base 3.1.0
 _ZN9QInfinity12WrapperStoreC2Ev@Base 3.1.0
 _ZN9QInfinity12WrapperStoreD0Ev@Base 3.1.0
 _ZN9QInfinity12WrapperStoreD1Ev@Base 3.1.0
 _ZN9QInfinity12WrapperStoreD2Ev@Base 3.1.0
 _ZN9QInfinity13TcpConnection11qt_metacallEN11QMetaObject4CallEiPPv@Base 3.1.0
 _ZN9QInfinity13TcpConnection11qt_metacastEPKc@Base 3.1.0
 _ZN9QInfinity13TcpConnection12setupSignalsEv@Base 3.1.0
 _ZN9QInfinity13TcpConnection13statusChangedEv@Base 3.1.0
 _ZN9QInfinity13TcpConnection16staticMetaObjectE@Base 3.1.0
 _ZN9QInfinity13TcpConnection17emitStatusChangedEv@Base 3.1.0
 _ZN9QInfinity13TcpConnection17status_changed_cbEP17_InfTcpConnectionPKcPv@Base 3.1.0
 _ZN9QInfinity13TcpConnection4openEv@Base 3.1.0
 _ZN9QInfinity13TcpConnection4wrapEP17_InfTcpConnectionP7QObjectb@Base 3.1.0
 _ZN9QInfinity13TcpConnection5closeEv@Base 3.1.0
 _ZN9QInfinity13TcpConnectionC1EP17_InfTcpConnectionP7QObjectb@Base 3.1.0
 _ZN9QInfinity13TcpConnectionC1ERKNS_9IpAddressEjP7QObjectb@Base 3.1.0
 _ZN9QInfinity13TcpConnectionC2EP17_InfTcpConnectionP7QObjectb@Base 3.1.0
 _ZN9QInfinity13TcpConnectionC2ERKNS_9IpAddressEjP7QObjectb@Base 3.1.0
 _ZN9QInfinity13TcpConnectionD0Ev@Base 3.1.0
 _ZN9QInfinity13TcpConnectionD1Ev@Base 3.1.0
 _ZN9QInfinity13TcpConnectionD2Ev@Base 3.1.0
 _ZN9QInfinity13XmlConnection11qt_metacallEN11QMetaObject4CallEiPPv@Base 3.1.0
 _ZN9QInfinity13XmlConnection11qt_metacastEPKc@Base 3.1.0
 _ZN9QInfinity13XmlConnection11signalErrorEPK7_GError@Base 3.1.0
 _ZN9QInfinity13XmlConnection13statusChangedEv@Base 3.1.0
 _ZN9QInfinity13XmlConnection13tcpConnectionEv@Base 3.1.0
 _ZN9QInfinity13XmlConnection15registerSignalsEv@Base 3.1.0
 _ZN9QInfinity13XmlConnection16staticMetaObjectE@Base 3.1.0
 _ZN9QInfinity13XmlConnection17status_changed_cbEP17_InfXmlConnectionPKcPv@Base 3.1.0
 _ZN9QInfinity13XmlConnection19signalStatusChangedEv@Base 3.1.0
 _ZN9QInfinity13XmlConnection4wrapEP17_InfXmlConnectionP7QObjectb@Base 3.1.0
 _ZN9QInfinity13XmlConnection5closeEv@Base 3.1.0
 _ZN9QInfinity13XmlConnection5errorEPK7_GError@Base 3.1.0
 _ZN9QInfinity13XmlConnection8error_cbEP17_InfXmlConnectionPK7_GErrorPv@Base 3.1.0
 _ZN9QInfinity13XmlConnectionC1EP17_InfXmlConnectionP7QObjectb@Base 3.1.0
 _ZN9QInfinity13XmlConnectionC2EP17_InfXmlConnectionP7QObjectb@Base 3.1.0
 _ZN9QInfinity13XmlConnectionD0Ev@Base 3.1.0
 _ZN9QInfinity13XmlConnectionD1Ev@Base 3.1.0
 _ZN9QInfinity13XmlConnectionD2Ev@Base 3.1.0
 _ZN9QInfinity14AdoptedSession4redoERNS_11AdoptedUserEi@Base 3.1.0
 _ZN9QInfinity14AdoptedSession4undoERNS_11AdoptedUserEi@Base 3.1.0
 _ZN9QInfinity14AdoptedSession7canRedoERNS_11AdoptedUserE@Base 3.1.0
 _ZN9QInfinity14AdoptedSession7canUndoERNS_11AdoptedUserE@Base 3.1.0
 _ZN9QInfinity14AdoptedSessionC1EP18_InfAdoptedSessionP7QObjectb@Base 3.1.0
 _ZN9QInfinity14AdoptedSessionC2EP18_InfAdoptedSessionP7QObjectb@Base 3.1.0
 _ZN9QInfinity14AdoptedSessionD0Ev@Base 3.1.0
 _ZN9QInfinity14AdoptedSessionD1Ev@Base 3.1.0
 _ZN9QInfinity14AdoptedSessionD2Ev@Base 3.1.0
 _ZN9QInfinity14ConnectionItemC1ERNS_13XmlConnectionERNS_7BrowserERK5QIconRK7QString@Base 3.1.0
 _ZN9QInfinity14ConnectionItemC1ERNS_13XmlConnectionERNS_7BrowserERK7QString@Base 3.1.0
 _ZN9QInfinity14ConnectionItemC2ERNS_13XmlConnectionERNS_7BrowserERK5QIconRK7QString@Base 3.1.0
 _ZN9QInfinity14ConnectionItemC2ERNS_13XmlConnectionERNS_7BrowserERK7QString@Base 3.1.0
 _ZN9QInfinity14ConnectionItemD0Ev@Base 3.1.0
 _ZN9QInfinity14ConnectionItemD1Ev@Base 3.1.0
 _ZN9QInfinity14ConnectionItemD2Ev@Base 3.1.0
 _ZN9QInfinity14ExploreRequest11finished_cbEP12_InfcRequestPv@Base 3.1.0
 _ZN9QInfinity14ExploreRequest11qt_metacallEN11QMetaObject4CallEiPPv@Base 3.1.0
 _ZN9QInfinity14ExploreRequest11qt_metacastEPKc@Base 3.1.0
 _ZN9QInfinity14ExploreRequest14signalFinishedEv@Base 3.1.0
 _ZN9QInfinity14ExploreRequest16staticMetaObjectE@Base 3.1.0
 _ZN9QInfinity14ExploreRequest4wrapEP19_InfcExploreRequestP7QObjectb@Base 3.1.0
 _ZN9QInfinity14ExploreRequest8finishedEPS0_@Base 3.1.0
 _ZN9QInfinity14ExploreRequestC1EP19_InfcExploreRequestP7QObject@Base 3.1.0
 _ZN9QInfinity14ExploreRequestC2EP19_InfcExploreRequestP7QObject@Base 3.1.0
 _ZN9QInfinity14ExploreRequestD0Ev@Base 3.1.0
 _ZN9QInfinity14ExploreRequestD1Ev@Base 3.1.0
 _ZN9QInfinity14ExploreRequestD2Ev@Base 3.1.0
 _ZN9QInfinity14XmppConnection11qt_metacallEN11QMetaObject4CallEiPPv@Base 3.1.0
 _ZN9QInfinity14XmppConnection11qt_metacastEPKc@Base 3.1.0
 _ZN9QInfinity14XmppConnection16staticMetaObjectE@Base 3.1.0
 _ZN9QInfinity14XmppConnection19securityPolicyToInfENS0_14SecurityPolicyE@Base 3.1.0
 _ZN9QInfinity14XmppConnection26connectSimulatedConnectionEPS0_@Base 3.1.0
 _ZN9QInfinity14XmppConnection9siteToInfENS0_4SiteE@Base 3.1.0
 _ZN9QInfinity14XmppConnectionC1EP7QObject@Base 3.1.0
 _ZN9QInfinity14XmppConnectionC1ERNS_13TcpConnectionENS0_4SiteERK7QStringS6_NS0_14SecurityPolicyEPNS_22CertificateCredentialsEP15_InfSaslContextPKcP7QObjectb@Base 3.1.0
 _ZN9QInfinity14XmppConnectionC2EP7QObject@Base 3.1.0
 _ZN9QInfinity14XmppConnectionC2ERNS_13TcpConnectionENS0_4SiteERK7QStringS6_NS0_14SecurityPolicyEPNS_22CertificateCredentialsEP15_InfSaslContextPKcP7QObjectb@Base 3.1.0
 _ZN9QInfinity14XmppConnectionD0Ev@Base 3.1.0
 _ZN9QInfinity14XmppConnectionD1Ev@Base 3.1.0
 _ZN9QInfinity14XmppConnectionD2Ev@Base 3.1.0
 _ZN9QInfinity14active_user_cbEP8_InfUserPv@Base 3.1.0
 _ZN9QInfinity14qinf_qt_io_newEv@Base 3.1.0
 _ZN9QInfinity15ConnectionIndex10removeIterERKNS_11BrowserIterE@Base 3.1.0
 _ZN9QInfinity15ConnectionIndex9indexIterERKNS_11BrowserIterERNS_8NodeItemE@Base 3.1.0
 _ZN9QInfinity15ConnectionIndexC1ERNS_13XmlConnectionERNS_7BrowserE@Base 3.1.0
 _ZN9QInfinity15ConnectionIndexC2ERNS_13XmlConnectionERNS_7BrowserE@Base 3.1.0
 _ZN9QInfinity15ConnectionIndexD1Ev@Base 3.1.0
 _ZN9QInfinity15ConnectionIndexD2Ev@Base 3.1.0
 _ZN9QInfinity15UserItemFactory14createUserItemERNS_4UserE@Base 3.1.0
 _ZN9QInfinity15UserItemFactoryC1Ev@Base 3.1.0
 _ZN9QInfinity15UserItemFactoryC2Ev@Base 3.1.0
 _ZN9QInfinity15UserItemFactoryD0Ev@Base 3.1.0
 _ZN9QInfinity15UserItemFactoryD1Ev@Base 3.1.0
 _ZN9QInfinity15UserItemFactoryD2Ev@Base 3.1.0
 _ZN9QInfinity17DefaultTextPlugin13createSessionEPNS_20CommunicationManagerENS_7Session6StatusEPNS_24CommunicationJoinedGroupEPNS_13XmlConnectionEPv@Base 3.1.0
 _ZN9QInfinity17DefaultTextPluginC1EP7QObject@Base 3.1.0
 _ZN9QInfinity17DefaultTextPluginC2EP7QObject@Base 3.1.0
 _ZN9QInfinity17DefaultTextPluginD0Ev@Base 3.1.0
 _ZN9QInfinity17DefaultTextPluginD1Ev@Base 3.1.0
 _ZN9QInfinity17DefaultTextPluginD2Ev@Base 3.1.0
 _ZN9QInfinity17TextDefaultBufferC1E7QStringP7QObject@Base 3.1.0
 _ZN9QInfinity17TextDefaultBufferC2E7QStringP7QObject@Base 3.1.0
 _ZN9QInfinity17TextDefaultBufferD0Ev@Base 3.1.0
 _ZN9QInfinity17TextDefaultBufferD1Ev@Base 3.1.0
 _ZN9QInfinity17TextDefaultBufferD2Ev@Base 3.1.0
 _ZN9QInfinity18AbstractTextBuffer13erase_text_cbEP14_InfTextBufferjjP8_InfUser@Base 3.1.0
 _ZN9QInfinity18AbstractTextBuffer14insert_text_cbEP14_InfTextBufferjP13_InfTextChunkP8_InfUser@Base 3.1.0
 _ZN9QInfinity18AbstractTextBuffer15bufferIfaceInitEPvS1_@Base 3.1.0
 _ZN9QInfinity18AbstractTextBuffer19textBufferIfaceInitEPvS1_@Base 3.1.0
 _ZN9QInfinity18AbstractTextBuffer5chunkEv@Base 3.1.0
 _ZN9QInfinity18AbstractTextBufferC1ERK7QStringP7QObject@Base 3.1.0
 _ZN9QInfinity18AbstractTextBufferC2ERK7QStringP7QObject@Base 3.1.0
 _ZN9QInfinity18AbstractTextBufferD0Ev@Base 3.1.0
 _ZN9QInfinity18AbstractTextBufferD1Ev@Base 3.1.0
 _ZN9QInfinity18AbstractTextBufferD2Ev@Base 3.1.0
 _ZN9QInfinity18BrowserItemFactory14createNodeItemERKNS_11BrowserIterE@Base 3.1.0
 _ZN9QInfinity18BrowserItemFactory18createRootNodeItemERKNS_11BrowserIterE@Base 3.1.0
 _ZN9QInfinity18BrowserItemFactory20createConnectionItemERNS_13XmlConnectionERNS_7BrowserERK7QString@Base 3.1.0
 _ZN9QInfinity18BrowserItemFactoryC1EP7QObject@Base 3.1.0
 _ZN9QInfinity18BrowserItemFactoryC2EP7QObject@Base 3.1.0
 _ZN9QInfinity18BrowserItemFactoryD0Ev@Base 3.1.0
 _ZN9QInfinity18BrowserItemFactoryD1Ev@Base 3.1.0
 _ZN9QInfinity18BrowserItemFactoryD2Ev@Base 3.1.0
 _ZN9QInfinity19qinf_qt_io_get_typeEv@Base 3.1.0
 _ZN9QInfinity20CommunicationManager4wrapEP24_InfCommunicationManagerP7QObjectb@Base 3.1.0
 _ZN9QInfinity20CommunicationManagerC1EP24_InfCommunicationManagerP7QObjectb@Base 3.1.0
 _ZN9QInfinity20CommunicationManagerC1EP7QObjectb@Base 3.1.0
 _ZN9QInfinity20CommunicationManagerC1ERKS0_@Base 3.1.0
 _ZN9QInfinity20CommunicationManagerC2EP24_InfCommunicationManagerP7QObjectb@Base 3.1.0
 _ZN9QInfinity20CommunicationManagerC2EP7QObjectb@Base 3.1.0
 _ZN9QInfinity20CommunicationManagerC2ERKS0_@Base 3.1.0
 _ZN9QInfinity20CommunicationManagerD0Ev@Base 3.1.0
 _ZN9QInfinity20CommunicationManagerD1Ev@Base 3.1.0
 _ZN9QInfinity20CommunicationManagerD2Ev@Base 3.1.0
 _ZN9QInfinity22CertificateCredentialsC1EP7QObject@Base 3.1.0
 _ZN9QInfinity22CertificateCredentialsC2EP7QObject@Base 3.1.0
 _ZN9QInfinity22CertificateCredentialsD0Ev@Base 3.1.0
 _ZN9QInfinity22CertificateCredentialsD1Ev@Base 3.1.0
 _ZN9QInfinity22CertificateCredentialsD2Ev@Base 3.1.0
 _ZN9QInfinity24CommunicationJoinedGroup4wrapEP28_InfCommunicationJoinedGroupP7QObjectb@Base 3.1.0
 _ZN9QInfinity24CommunicationJoinedGroupC1EP28_InfCommunicationJoinedGroupP7QObjectb@Base 3.1.0
 _ZN9QInfinity24CommunicationJoinedGroupC2EP28_InfCommunicationJoinedGroupP7QObjectb@Base 3.1.0
 _ZN9QInfinity24CommunicationJoinedGroupD0Ev@Base 3.1.0
 _ZN9QInfinity24CommunicationJoinedGroupD1Ev@Base 3.1.0
 _ZN9QInfinity24CommunicationJoinedGroupD2Ev@Base 3.1.0
 _ZN9QInfinity4QtIo10addTimeoutEjPFvPvES1_S3_@Base 3.1.0
 _ZN9QInfinity4QtIo11addDispatchEPFvPvES1_S3_@Base 3.1.0
 _ZN9QInfinity4QtIo11removeWatchEP11_InfIoWatch@Base 3.1.0
 _ZN9QInfinity4QtIo11updateWatchEP11_InfIoWatch11_InfIoEvent@Base 3.1.0
 _ZN9QInfinity4QtIo13removeTimeoutEP13_InfIoTimeout@Base 3.1.0
 _ZN9QInfinity4QtIo14removeDispatchEP14_InfIoDispatch@Base 3.1.0
 _ZN9QInfinity4QtIo5eventEP6QEvent@Base 3.1.0
 _ZN9QInfinity4QtIo8addWatchEPi11_InfIoEventPFvS1_S2_PvES3_PFvS3_E@Base 3.1.0
 _ZN9QInfinity4QtIo8instanceEv@Base 3.1.0
 _ZN9QInfinity4QtIo8setOwnerEb@Base 3.1.0
 _ZN9QInfinity4QtIoC1EP7QObject@Base 3.1.0
 _ZN9QInfinity4QtIoC2EP7QObject@Base 3.1.0
 _ZN9QInfinity4QtIoD0Ev@Base 3.1.0
 _ZN9QInfinity4QtIoD1Ev@Base 3.1.0
 _ZN9QInfinity4QtIoD2Ev@Base 3.1.0
 _ZN9QInfinity4User11qt_metacallEN11QMetaObject4CallEiPPv@Base 3.1.0
 _ZN9QInfinity4User11qt_metacastEPKc@Base 3.1.0
 _ZN9QInfinity4User13convertStatusE14_InfUserStatus@Base 3.1.0
 _ZN9QInfinity4User13convertStatusENS0_6StatusE@Base 3.1.0
 _ZN9QInfinity4User13statusChangedEv@Base 3.1.0
 _ZN9QInfinity4User16staticMetaObjectE@Base 3.1.0
 _ZN9QInfinity4User17emitStatusChangedEv@Base 3.1.0
 _ZN9QInfinity4User17status_changed_cbEP8_InfUserPKcPv@Base 3.1.0
 _ZN9QInfinity4User4wrapEP8_InfUserP7QObjectb@Base 3.1.0
 _ZN9QInfinity4UserC1EP8_InfUserP7QObjectb@Base 3.1.0
 _ZN9QInfinity4UserC2EP8_InfUserP7QObjectb@Base 3.1.0
 _ZN9QInfinity4UserD0Ev@Base 3.1.0
 _ZN9QInfinity4UserD1Ev@Base 3.1.0
 _ZN9QInfinity4UserD2Ev@Base 3.1.0
 _ZN9QInfinity4initEv@Base 3.1.0
 _ZN9QInfinity6Buffer4wrapEP10_InfBufferP7QObjectb@Base 3.1.0
 _ZN9QInfinity6BufferC1EP10_InfBufferP7QObjectb@Base 3.1.0
 _ZN9QInfinity6BufferC2EP10_InfBufferP7QObjectb@Base 3.1.0
 _ZN9QInfinity6BufferD0Ev@Base 3.1.0
 _ZN9QInfinity6BufferD1Ev@Base 3.1.0
 _ZN9QInfinity6BufferD2Ev@Base 3.1.0
 _ZN9QInfinity6deinitEv@Base 3.1.0
 _ZN9QInfinity7Browser10removeNodeENS_11BrowserIterE@Base 3.1.0
 _ZN9QInfinity7Browser11nodeRemovedERKNS_11BrowserIterE@Base 3.1.0
 _ZN9QInfinity7Browser11qt_metacallEN11QMetaObject4CallEiPPv@Base 3.1.0
 _ZN9QInfinity7Browser11qt_metacastEPKc@Base 3.1.0
 _ZN9QInfinity7Browser11signalErrorE7QString@Base 3.1.0
 _ZN9QInfinity7Browser12beginExploreERKNS_11BrowserIterEP19_InfcExploreRequest@Base 3.1.0
 _ZN9QInfinity7Browser12setupSignalsEv@Base 3.1.0
 _ZN9QInfinity7Browser13node_added_cbEP12_InfcBrowserP16_InfcBrowserIterPv@Base 3.1.0
 _ZN9QInfinity7Browser13statusChangedE18_InfcBrowserStatus@Base 3.1.0
 _ZN9QInfinity7Browser14beginSubscribeERKNS_11BrowserIterEP16_InfcNodeRequest@Base 3.1.0
 _ZN9QInfinity7Browser15addSubdirectoryENS_11BrowserIterEPKc@Base 3.1.0
 _ZN9QInfinity7Browser15node_removed_cbEP12_InfcBrowserP16_InfcBrowserIterPv@Base 3.1.0
 _ZN9QInfinity7Browser15signalNodeAddedEP16_InfcBrowserIter@Base 3.1.0
 _ZN9QInfinity7Browser16begin_explore_cbEP12_InfcBrowserP16_InfcBrowserIterP19_InfcExploreRequestPv@Base 3.1.0
 _ZN9QInfinity7Browser16connectionStatusEv@Base 3.1.0
 _ZN9QInfinity7Browser16staticMetaObjectE@Base 3.1.0
 _ZN9QInfinity7Browser16subscribeSessionENS_11BrowserIterEPNS_10NotePluginEPNS_18AbstractTextBufferE@Base 3.1.0
 _ZN9QInfinity7Browser16subscribeSessionERKNS_11BrowserIterE8QPointerINS_12SessionProxyEE@Base 3.1.0
 _ZN9QInfinity7Browser17signalNodeRemovedEP16_InfcBrowserIter@Base 3.1.0
 _ZN9QInfinity7Browser17status_changed_cbEP12_InfcBrowserPv@Base 3.1.0
 _ZN9QInfinity7Browser18addNoteWithContentENS_11BrowserIterEPKcRNS_10NotePluginERNS_7SessionEb@Base 3.1.0
 _ZN9QInfinity7Browser18begin_subscribe_cbEP12_InfcBrowserP16_InfcBrowserIterP16_InfcNodeRequestPv@Base 3.1.0
 _ZN9QInfinity7Browser18signalBeginExploreEP16_InfcBrowserIterP19_InfcExploreRequest@Base 3.1.0
 _ZN9QInfinity7Browser19signalStatusChangedE18_InfcBrowserStatus@Base 3.1.0
 _ZN9QInfinity7Browser20signalBeginSubscribeEP16_InfcBrowserIterP16_InfcNodeRequest@Base 3.1.0
 _ZN9QInfinity7Browser20subscribe_session_cbEP12_InfcBrowserP16_InfcBrowserIterP17_InfcSessionProxyPv@Base 3.1.0
 _ZN9QInfinity7Browser21connectionEstablishedEPKS0_@Base 3.1.0
 _ZN9QInfinity7Browser22signalSubscribeSessionEP16_InfcBrowserIterP17_InfcSessionProxy@Base 3.1.0
 _ZN9QInfinity7Browser4wrapEP12_InfcBrowserP7QObjectb@Base 3.1.0
 _ZN9QInfinity7Browser5errorEPKS0_7QString@Base 3.1.0
 _ZN9QInfinity7Browser7addNoteENS_11BrowserIterEPKcRNS_10NotePluginEb@Base 3.1.0
 _ZN9QInfinity7Browser8error_cbEP12_InfcBrowserPK7_GError@Base 3.1.0
 _ZN9QInfinity7Browser9addPluginERNS_10NotePluginE@Base 3.1.0
 _ZN9QInfinity7Browser9nodeAddedERKNS_11BrowserIterE@Base 3.1.0
 _ZN9QInfinity7BrowserC1EP12_InfcBrowserP7QObjectb@Base 3.1.0
 _ZN9QInfinity7BrowserC1ERNS_20CommunicationManagerEPNS_13XmlConnectionEP7QObject@Base 3.1.0
 _ZN9QInfinity7BrowserC2EP12_InfcBrowserP7QObjectb@Base 3.1.0
 _ZN9QInfinity7BrowserC2ERNS_20CommunicationManagerEPNS_13XmlConnectionEP7QObject@Base 3.1.0
 _ZN9QInfinity7BrowserD0Ev@Base 3.1.0
 _ZN9QInfinity7BrowserD1Ev@Base 3.1.0
 _ZN9QInfinity7BrowserD2Ev@Base 3.1.0
 _ZN9QInfinity7Request11qt_metacallEN11QMetaObject4CallEiPPv@Base 3.1.0
 _ZN9QInfinity7Request11qt_metacastEPKc@Base 3.1.0
 _ZN9QInfinity7Request12setupSignalsEv@Base 3.1.0
 _ZN9QInfinity7Request12signalFailedEP7_GError@Base 3.1.0
 _ZN9QInfinity7Request15signalFailed_cbEP12_InfcRequestP7_GErrorPv@Base 3.1.0
 _ZN9QInfinity7Request16staticMetaObjectE@Base 3.1.0
 _ZN9QInfinity7Request6failedEP7_GError@Base 3.1.0
 _ZN9QInfinity7RequestC1EP12_InfcRequestP7QObject@Base 3.1.0
 _ZN9QInfinity7RequestC2EP12_InfcRequestP7QObject@Base 3.1.0
 _ZN9QInfinity7RequestD0Ev@Base 3.1.0
 _ZN9QInfinity7RequestD1Ev@Base 3.1.0
 _ZN9QInfinity7RequestD2Ev@Base 3.1.0
 _ZN9QInfinity7Session11qt_metacallEN11QMetaObject4CallEiPPv@Base 3.1.0
 _ZN9QInfinity7Session11qt_metacastEPKc@Base 3.1.0
 _ZN9QInfinity7Session11statusToInfENS0_6StatusE@Base 3.1.0
 _ZN9QInfinity7Session12setupSignalsEv@Base 3.1.0
 _ZN9QInfinity7Session13setUserStatusERNS_4UserENS1_6StatusE@Base 3.1.0
 _ZN9QInfinity7Session13signalClosingEv@Base 3.1.0
 _ZN9QInfinity7Session13statusChangedEv@Base 3.1.0
 _ZN9QInfinity7Session14infStatusToCppE17_InfSessionStatus@Base 3.1.0
 _ZN9QInfinity7Session14signalProgressEd@Base 3.1.0
 _ZN9QInfinity7Session16staticMetaObjectE@Base 3.1.0
 _ZN9QInfinity7Session17status_changed_cbEP11_InfSessionPKcPv@Base 3.1.0
 _ZN9QInfinity7Session19signalStatusChangedEv@Base 3.1.0
 _ZN9QInfinity7Session20synchronizationBeginEv@Base 3.1.0
 _ZN9QInfinity7Session21synchronizationFailedEP7_GError@Base 3.1.0
 _ZN9QInfinity7Session23synchronizationCompleteEv@Base 3.1.0
 _ZN9QInfinity7Session24synchronization_begin_cbEP11_InfSessionP22_InfCommunicationGroupP17_InfXmlConnectionPv@Base 3.1.0
 _ZN9QInfinity7Session25synchronization_failed_cbEP11_InfSessionP17_InfXmlConnectionP7_GErrorPv@Base 3.1.0
 _ZN9QInfinity7Session26signalSynchronizationBeginEv@Base 3.1.0
 _ZN9QInfinity7Session27signalSynchronizationFailedEP7_GError@Base 3.1.0
 _ZN9QInfinity7Session27synchronization_complete_cbEP11_InfSessionP17_InfXmlConnectionPv@Base 3.1.0
 _ZN9QInfinity7Session27synchronization_progress_cbEP11_InfSessionP17_InfXmlConnectiondPv@Base 3.1.0
 _ZN9QInfinity7Session29signalSynchronizationCompleteEv@Base 3.1.0
 _ZN9QInfinity7Session4wrapEP11_InfSessionP7QObjectb@Base 3.1.0
 _ZN9QInfinity7Session5closeEv@Base 3.1.0
 _ZN9QInfinity7Session7closingEv@Base 3.1.0
 _ZN9QInfinity7Session8close_cbEP11_InfSessionPv@Base 3.1.0
 _ZN9QInfinity7Session8progressEd@Base 3.1.0
 _ZN9QInfinity7SessionC1EP11_InfSessionP7QObjectb@Base 3.1.0
 _ZN9QInfinity7SessionC2EP11_InfSessionP7QObjectb@Base 3.1.0
 _ZN9QInfinity7SessionD0Ev@Base 3.1.0
 _ZN9QInfinity7SessionD1Ev@Base 3.1.0
 _ZN9QInfinity7SessionD2Ev@Base 3.1.0
 _ZN9QInfinity7user_cbEP8_InfUserPv@Base 3.1.0
 _ZN9QInfinity8InfEvent4callEv@Base 3.1.0
 _ZN9QInfinity8InfEventC1EPFvPvES1_S3_@Base 3.1.0
 _ZN9QInfinity8InfEventC2EPFvPvES1_S3_@Base 3.1.0
 _ZN9QInfinity8InfEventD0Ev@Base 3.1.0
 _ZN9QInfinity8InfEventD1Ev@Base 3.1.0
 _ZN9QInfinity8InfEventD2Ev@Base 3.1.0
 _ZN9QInfinity8InfTimer11qt_metacallEN11QMetaObject4CallEiPPv@Base 3.1.0
 _ZN9QInfinity8InfTimer11qt_metacastEPKc@Base 3.1.0
 _ZN9QInfinity8InfTimer16staticMetaObjectE@Base 3.1.0
 _ZN9QInfinity8InfTimer8activateEv@Base 3.1.0
 _ZN9QInfinity8InfTimer9activatedEv@Base 3.1.0
 _ZN9QInfinity8InfTimerC1EjPFvPvES1_S3_P7QObject@Base 3.1.0
 _ZN9QInfinity8InfTimerC2EjPFvPvES1_S3_P7QObject@Base 3.1.0
 _ZN9QInfinity8InfTimerD0Ev@Base 3.1.0
 _ZN9QInfinity8InfTimerD1Ev@Base 3.1.0
 _ZN9QInfinity8InfTimerD2Ev@Base 3.1.0
 _ZN9QInfinity8NodeItem11isDirectoryEv@Base 3.1.0
 _ZN9QInfinity8NodeItem8activateEv@Base 3.1.0
 _ZN9QInfinity8NodeItemC1ERKNS_11BrowserIterE@Base 3.1.0
 _ZN9QInfinity8NodeItemC1ERKNS_11BrowserIterERK5QIcon@Base 3.1.0
 _ZN9QInfinity8NodeItemC1ERKNS_11BrowserIterERK5QIconRK7QString@Base 3.1.0
 _ZN9QInfinity8NodeItemC1ERKNS_11BrowserIterERK7QString@Base 3.1.0
 _ZN9QInfinity8NodeItemC2ERKNS_11BrowserIterE@Base 3.1.0
 _ZN9QInfinity8NodeItemC2ERKNS_11BrowserIterERK5QIcon@Base 3.1.0
 _ZN9QInfinity8NodeItemC2ERKNS_11BrowserIterERK5QIconRK7QString@Base 3.1.0
 _ZN9QInfinity8NodeItemC2ERKNS_11BrowserIterERK7QString@Base 3.1.0
 _ZN9QInfinity8NodeItemD0Ev@Base 3.1.0
 _ZN9QInfinity8NodeItemD1Ev@Base 3.1.0
 _ZN9QInfinity8NodeItemD2Ev@Base 3.1.0
 _ZN9QInfinity8QGObject10setGobjectEP8_GObjectb@Base 3.1.0
 _ZN9QInfinity8QGObject11qt_metacallEN11QMetaObject4CallEiPPv@Base 3.1.0
 _ZN9QInfinity8QGObject11qt_metacastEPKc@Base 3.1.0
 _ZN9QInfinity8QGObject14aboutToDestroyEPS0_@Base 3.1.0
 _ZN9QInfinity8QGObject16staticMetaObjectE@Base 3.1.0
 _ZN9QInfinity8QGObjectC1EP7QObject@Base 3.1.0
 _ZN9QInfinity8QGObjectC1EP8_GObjectP7QObjectb@Base 3.1.0
 _ZN9QInfinity8QGObjectC2EP7QObject@Base 3.1.0
 _ZN9QInfinity8QGObjectC2EP8_GObjectP7QObjectb@Base 3.1.0
 _ZN9QInfinity8QGObjectD0Ev@Base 3.1.0
 _ZN9QInfinity8QGObjectD1Ev@Base 3.1.0
 _ZN9QInfinity8QGObjectD2Ev@Base 3.1.0
 _ZN9QInfinity8QGSignalC1EPNS_8QGObjectEPKcPFvvEPvP7QObjectb@Base 3.1.0
 _ZN9QInfinity8QGSignalC2EPNS_8QGObjectEPKcPFvvEPvP7QObjectb@Base 3.1.0
 _ZN9QInfinity8QGSignalD0Ev@Base 3.1.0
 _ZN9QInfinity8QGSignalD1Ev@Base 3.1.0
 _ZN9QInfinity8QGSignalD2Ev@Base 3.1.0
 _ZN9QInfinity8UserItemC1ERNS_4UserE@Base 3.1.0
 _ZN9QInfinity8UserItemC2ERNS_4UserE@Base 3.1.0
 _ZN9QInfinity8UserItemD0Ev@Base 3.1.0
 _ZN9QInfinity8UserItemD1Ev@Base 3.1.0
 _ZN9QInfinity8UserItemD2Ev@Base 3.1.0
 _ZN9QInfinity9IpAddress8toStringEv@Base 3.1.0
 _ZN9QInfinity9IpAddressC1EPKc@Base 3.1.0
 _ZN9QInfinity9IpAddressC1ERK12QHostAddress@Base 3.1.0
 _ZN9QInfinity9IpAddressC1Ej@Base 3.1.0
 _ZN9QInfinity9IpAddressC2EPKc@Base 3.1.0
 _ZN9QInfinity9IpAddressC2ERK12QHostAddress@Base 3.1.0
 _ZN9QInfinity9IpAddressC2Ej@Base 3.1.0
 _ZN9QInfinity9IpAddressD1Ev@Base 3.1.0
 _ZN9QInfinity9IpAddressD2Ev@Base 3.1.0
 _ZN9QInfinity9QtIoWatch11qt_metacallEN11QMetaObject4CallEiPPv@Base 3.1.0
 _ZN9QInfinity9QtIoWatch11qt_metacastEPKc@Base 3.1.0
 _ZN9QInfinity9QtIoWatch13setErrorEventEb@Base 3.1.0
 _ZN9QInfinity9QtIoWatch14errorActivatedEi@Base 3.1.0
 _ZN9QInfinity9QtIoWatch16setIncomingEventEb@Base 3.1.0
 _ZN9QInfinity9QtIoWatch16setOutgoingEventEb@Base 3.1.0
 _ZN9QInfinity9QtIoWatch16staticMetaObjectE@Base 3.1.0
 _ZN9QInfinity9QtIoWatch17incomingActivatedEi@Base 3.1.0
 _ZN9QInfinity9QtIoWatch17outgoingActivatedEi@Base 3.1.0
 _ZN9QInfinity9QtIoWatch9setEventsE11_InfIoEvent@Base 3.1.0
 _ZN9QInfinity9QtIoWatchC1Ei11_InfIoEventPFvPiS1_PvES3_PFvS3_EP7QObject@Base 3.1.0
 _ZN9QInfinity9QtIoWatchC2Ei11_InfIoEventPFvPiS1_PvES3_PFvS3_EP7QObject@Base 3.1.0
 _ZN9QInfinity9QtIoWatchD0Ev@Base 3.1.0
 _ZN9QInfinity9QtIoWatchD1Ev@Base 3.1.0
 _ZN9QInfinity9QtIoWatchD2Ev@Base 3.1.0
 _ZN9QInfinity9TextChunk10insertTextEjRK10QByteArrayjj@Base 3.1.0
 _ZN9QInfinity9TextChunk11insertChunkEjRKS0_@Base 3.1.0
 _ZN9QInfinity9TextChunk5eraseEjj@Base 3.1.0
 _ZN9QInfinity9TextChunkC1EP13_InfTextChunkb@Base 3.1.0
 _ZN9QInfinity9TextChunkC1ERK7QString@Base 3.1.0
 _ZN9QInfinity9TextChunkC1ERKS0_@Base 3.1.0
 _ZN9QInfinity9TextChunkC2EP13_InfTextChunkb@Base 3.1.0
 _ZN9QInfinity9TextChunkC2ERK7QString@Base 3.1.0
 _ZN9QInfinity9TextChunkC2ERKS0_@Base 3.1.0
 _ZN9QInfinity9TextChunkD1Ev@Base 3.1.0
 _ZN9QInfinity9TextChunkD2Ev@Base 3.1.0
 _ZN9QInfinity9UserTable10localUsersEv@Base 3.1.0
 _ZN9QInfinity9UserTable10lookupUserERK7QString@Base 3.1.0
 _ZN9QInfinity9UserTable10lookupUserEj@Base 3.1.0
 _ZN9QInfinity9UserTable11activeUsersEv@Base 3.1.0
 _ZN9QInfinity9UserTable11qt_metacallEN11QMetaObject4CallEiPPv@Base 3.1.0
 _ZN9QInfinity9UserTable11qt_metacastEPKc@Base 3.1.0
 _ZN9QInfinity9UserTable11userRemovedEPNS_4UserE@Base 3.1.0
 _ZN9QInfinity9UserTable12removeUserCbEP13_InfUserTableP8_InfUserPv@Base 3.1.0
 _ZN9QInfinity9UserTable12setupSignalsEv@Base 3.1.0
 _ZN9QInfinity9UserTable13emitUserAddedEPNS_4UserE@Base 3.1.0
 _ZN9QInfinity9UserTable14addLocalUserCbEP13_InfUserTableP8_InfUserPv@Base 3.1.0
 _ZN9QInfinity9UserTable14localUserAddedEPNS_4UserE@Base 3.1.0
 _ZN9QInfinity9UserTable15emitUserRemovedEPNS_4UserE@Base 3.1.0
 _ZN9QInfinity9UserTable16localUserRemovedEPNS_4UserE@Base 3.1.0
 _ZN9QInfinity9UserTable16staticMetaObjectE@Base 3.1.0
 _ZN9QInfinity9UserTable17removeLocalUserCbEP13_InfUserTableP8_InfUserPv@Base 3.1.0
 _ZN9QInfinity9UserTable18emitLocalUserAddedEPNS_4UserE@Base 3.1.0
 _ZN9QInfinity9UserTable20emitLocalUserRemovedEPNS_4UserE@Base 3.1.0
 _ZN9QInfinity9UserTable4wrapEP13_InfUserTableP7QObjectb@Base 3.1.0
 _ZN9QInfinity9UserTable5usersEv@Base 3.1.0
 _ZN9QInfinity9UserTable9addUserCbEP13_InfUserTableP8_InfUserPv@Base 3.1.0
 _ZN9QInfinity9UserTable9userAddedEPNS_4UserE@Base 3.1.0
 _ZN9QInfinity9UserTableC1EP13_InfUserTableP7QObjectb@Base 3.1.0
 _ZN9QInfinity9UserTableC1EP7QObject@Base 3.1.0
 _ZN9QInfinity9UserTableC2EP13_InfUserTableP7QObjectb@Base 3.1.0
 _ZN9QInfinity9UserTableC2EP7QObject@Base 3.1.0
 _ZN9QInfinity9UserTableD0Ev@Base 3.1.0
 _ZN9QInfinity9UserTableD1Ev@Base 3.1.0
 _ZN9QInfinity9UserTableD2Ev@Base 3.1.0
 (optional=templinst)_ZNK5QHashIP8_GObjectPN9QInfinity8QGObjectEE8findNodeERKS1_Pj@Base 3.1.0
 (optional=templinst)_ZNK5QHashIPN9QInfinity4UserEPNS0_8UserItemEE8findNodeERKS2_Pj@Base 3.1.0
 (optional=templinst)_ZNK5QHashIPN9QInfinity7BrowserEPNS0_15ConnectionIndexEE6valuesEv@Base 3.1.0
 (optional=templinst)_ZNK5QHashIPN9QInfinity7BrowserEPNS0_15ConnectionIndexEE8findNodeERKS2_Pj@Base 3.1.0
 (optional=templinst)_ZNK5QHashIiPN9QInfinity9QtIoWatchEE6valuesEv@Base 3.1.0
 (optional=templinst)_ZNK5QHashIiPN9QInfinity9QtIoWatchEE8findNodeERKiPj@Base 3.1.0
 (optional=templinst)_ZNK5QHashIjPN9QInfinity8NodeItemEE8findNodeERKjPj@Base 3.1.0
 _ZNK9QInfinity10TextBuffer10metaObjectEv@Base 3.1.0
 _ZNK9QInfinity10TextBuffer5codecEv@Base 3.1.0
 _ZNK9QInfinity10TextBuffer7encoderEv@Base 3.1.0
 _ZNK9QInfinity10UsersModel10metaObjectEv@Base 3.1.0
 _ZNK9QInfinity11AdoptedUser10metaObjectEv@Base 3.1.0
 _ZNK9QInfinity11BrowserIter10infBrowserEv@Base 3.1.0
 _ZNK9QInfinity11BrowserIter14infBrowserIterEv@Base 3.1.0
 _ZNK9QInfinity11BrowserIter2idEv@Base 3.1.0
 _ZNK9QInfinity11BrowserIter4nameEv@Base 3.1.0
 _ZNK9QInfinity11BrowserIter4pathEv@Base 3.1.0
 _ZNK9QInfinity11BrowserIter7browserEv@Base 3.1.0
 _ZNK9QInfinity11NodeRequest10metaObjectEv@Base 3.1.0
 _ZNK9QInfinity11TextSession4typeEv@Base 3.1.0
 _ZNK9QInfinity11TextSession6bufferEv@Base 3.1.0
 _ZNK9QInfinity11UserRequest10metaObjectEv@Base 3.1.0
 _ZNK9QInfinity12BrowserModel10metaObjectEv@Base 3.1.0
 _ZNK9QInfinity12BrowserModel11hasChildrenERK11QModelIndex@Base 3.1.0
 _ZNK9QInfinity12BrowserModel15indexToNodeItemERK11QModelIndex@Base 3.1.0
 _ZNK9QInfinity12BrowserModel7pluginsEv@Base 3.1.0
 _ZNK9QInfinity12BrowserModel8browsersEv@Base 3.1.0
 _ZNK9QInfinity12SessionProxy7sessionEv@Base 3.1.0
 _ZNK9QInfinity12UndoGrouping12hasOpenGroupEv@Base 3.1.0
 _ZNK9QInfinity12UndoGrouping8redoSizeEv@Base 3.1.0
 _ZNK9QInfinity12UndoGrouping8undoSizeEv@Base 3.1.0
 _ZNK9QInfinity12WrapperStore10metaObjectEv@Base 3.1.0
 _ZNK9QInfinity13TcpConnection10metaObjectEv@Base 3.1.0
 _ZNK9QInfinity13TcpConnection6statusEv@Base 3.1.0
 _ZNK9QInfinity13XmlConnection10metaObjectEv@Base 3.1.0
 _ZNK9QInfinity13XmlConnection6statusEv@Base 3.1.0
 _ZNK9QInfinity14ConnectionItem10connectionEv@Base 3.1.0
 _ZNK9QInfinity14ConnectionItem4typeEv@Base 3.1.0
 _ZNK9QInfinity14ConnectionItem7browserEv@Base 3.1.0
 _ZNK9QInfinity14ExploreRequest10metaObjectEv@Base 3.1.0
 _ZNK9QInfinity14XmppConnection10metaObjectEv@Base 3.1.0
 _ZNK9QInfinity15ConnectionIndex10connectionEv@Base 3.1.0
 _ZNK9QInfinity15ConnectionIndex12itemFromIterERKNS_11BrowserIterE@Base 3.1.0
 _ZNK9QInfinity15ConnectionIndex7browserEv@Base 3.1.0
 _ZNK9QInfinity4QtIo7gobjectEv@Base 3.1.0
 _ZNK9QInfinity4User10metaObjectEv@Base 3.1.0
 _ZNK9QInfinity4User2idEv@Base 3.1.0
 _ZNK9QInfinity4User4nameEv@Base 3.1.0
 _ZNK9QInfinity4User6statusEv@Base 3.1.0
 _ZNK9QInfinity7Browser10connectionEv@Base 3.1.0
 _ZNK9QInfinity7Browser10metaObjectEv@Base 3.1.0
 _ZNK9QInfinity7Request10metaObjectEv@Base 3.1.0
 _ZNK9QInfinity7Session10metaObjectEv@Base 3.1.0
 _ZNK9QInfinity7Session20communicationManagerEv@Base 3.1.0
 _ZNK9QInfinity7Session4typeEv@Base 3.1.0
 _ZNK9QInfinity7Session6bufferEv@Base 3.1.0
 _ZNK9QInfinity7Session6statusEv@Base 3.1.0
 _ZNK9QInfinity7Session9userTableEv@Base 3.1.0
 _ZNK9QInfinity8InfTimer10metaObjectEv@Base 3.1.0
 _ZNK9QInfinity8NodeItem4iterEv@Base 3.1.0
 _ZNK9QInfinity8NodeItem4typeEv@Base 3.1.0
 _ZNK9QInfinity8QGObject10metaObjectEv@Base 3.1.0
 _ZNK9QInfinity8QGObject7gobjectEv@Base 3.1.0
 _ZNK9QInfinity8QGObject7isOwnerEv@Base 3.1.0
 _ZNK9QInfinity8UserItem4userEv@Base 3.1.0
 _ZNK9QInfinity9IpAddress7gobjectEv@Base 3.1.0
 _ZNK9QInfinity9QtIoWatch10metaObjectEv@Base 3.1.0
 _ZNK9QInfinity9TextChunk4textEv@Base 3.1.0
 _ZNK9QInfinity9TextChunk6lengthEv@Base 3.1.0
 _ZNK9QInfinity9TextChunk8encodingEv@Base 3.1.0
 _ZNK9QInfinity9TextChunk8infChunkEv@Base 3.1.0
 _ZNK9QInfinity9UserTable10metaObjectEv@Base 3.1.0
 _ZTIN9QInfinity10NotePluginE@Base 3.1.0
 _ZTIN9QInfinity10TextBufferE@Base 3.1.0
 _ZTIN9QInfinity10UsersModelE@Base 3.1.0
 _ZTIN9QInfinity11AdoptedUserE@Base 3.1.0
 _ZTIN9QInfinity11NodeRequestE@Base 3.1.0
 _ZTIN9QInfinity11TextSessionE@Base 3.1.0
 _ZTIN9QInfinity11UserRequestE@Base 3.1.0
 _ZTIN9QInfinity12BrowserModelE@Base 3.1.0
 _ZTIN9QInfinity12SessionProxyE@Base 3.1.0
 _ZTIN9QInfinity12UndoGroupingE@Base 3.1.0
 _ZTIN9QInfinity12WrapperStoreE@Base 3.1.0
 _ZTIN9QInfinity13TcpConnectionE@Base 3.1.0
 _ZTIN9QInfinity13XmlConnectionE@Base 3.1.0
 _ZTIN9QInfinity14AdoptedSessionE@Base 3.1.0
 _ZTIN9QInfinity14ConnectionItemE@Base 3.1.0
 _ZTIN9QInfinity14ExploreRequestE@Base 3.1.0
 _ZTIN9QInfinity14XmppConnectionE@Base 3.1.0
 _ZTIN9QInfinity15UserItemFactoryE@Base 3.1.0
 _ZTIN9QInfinity17DefaultTextPluginE@Base 3.1.0
 _ZTIN9QInfinity17TextDefaultBufferE@Base 3.1.0
 _ZTIN9QInfinity18AbstractTextBufferE@Base 3.1.0
 _ZTIN9QInfinity18BrowserItemFactoryE@Base 3.1.0
 _ZTIN9QInfinity20CommunicationManagerE@Base 3.1.0
 _ZTIN9QInfinity22CertificateCredentialsE@Base 3.1.0
 _ZTIN9QInfinity24CommunicationJoinedGroupE@Base 3.1.0
 _ZTIN9QInfinity4QtIoE@Base 3.1.0
 _ZTIN9QInfinity4UserE@Base 3.1.0
 _ZTIN9QInfinity6BufferE@Base 3.1.0
 _ZTIN9QInfinity7BrowserE@Base 3.1.0
 _ZTIN9QInfinity7RequestE@Base 3.1.0
 _ZTIN9QInfinity7SessionE@Base 3.1.0
 _ZTIN9QInfinity8InfEventE@Base 3.1.0
 _ZTIN9QInfinity8InfTimerE@Base 3.1.0
 _ZTIN9QInfinity8NodeItemE@Base 3.1.0
 _ZTIN9QInfinity8QGObjectE@Base 3.1.0
 _ZTIN9QInfinity8QGSignalE@Base 3.1.0
 _ZTIN9QInfinity8UserItemE@Base 3.1.0
 _ZTIN9QInfinity9QtIoWatchE@Base 3.1.0
 _ZTIN9QInfinity9UserTableE@Base 3.1.0
 _ZTSN9QInfinity10NotePluginE@Base 3.1.0
 _ZTSN9QInfinity10TextBufferE@Base 3.1.0
 _ZTSN9QInfinity10UsersModelE@Base 3.1.0
 _ZTSN9QInfinity11AdoptedUserE@Base 3.1.0
 _ZTSN9QInfinity11NodeRequestE@Base 3.1.0
 _ZTSN9QInfinity11TextSessionE@Base 3.1.0
 _ZTSN9QInfinity11UserRequestE@Base 3.1.0
 _ZTSN9QInfinity12BrowserModelE@Base 3.1.0
 _ZTSN9QInfinity12SessionProxyE@Base 3.1.0
 _ZTSN9QInfinity12UndoGroupingE@Base 3.1.0
 _ZTSN9QInfinity12WrapperStoreE@Base 3.1.0
 _ZTSN9QInfinity13TcpConnectionE@Base 3.1.0
 _ZTSN9QInfinity13XmlConnectionE@Base 3.1.0
 _ZTSN9QInfinity14AdoptedSessionE@Base 3.1.0
 _ZTSN9QInfinity14ConnectionItemE@Base 3.1.0
 _ZTSN9QInfinity14ExploreRequestE@Base 3.1.0
 _ZTSN9QInfinity14XmppConnectionE@Base 3.1.0
 _ZTSN9QInfinity15UserItemFactoryE@Base 3.1.0
 _ZTSN9QInfinity17DefaultTextPluginE@Base 3.1.0
 _ZTSN9QInfinity17TextDefaultBufferE@Base 3.1.0
 _ZTSN9QInfinity18AbstractTextBufferE@Base 3.1.0
 _ZTSN9QInfinity18BrowserItemFactoryE@Base 3.1.0
 _ZTSN9QInfinity20CommunicationManagerE@Base 3.1.0
 _ZTSN9QInfinity22CertificateCredentialsE@Base 3.1.0
 _ZTSN9QInfinity24CommunicationJoinedGroupE@Base 3.1.0
 _ZTSN9QInfinity4QtIoE@Base 3.1.0
 _ZTSN9QInfinity4UserE@Base 3.1.0
 _ZTSN9QInfinity6BufferE@Base 3.1.0
 _ZTSN9QInfinity7BrowserE@Base 3.1.0
 _ZTSN9QInfinity7RequestE@Base 3.1.0
 _ZTSN9QInfinity7SessionE@Base 3.1.0
 _ZTSN9QInfinity8InfEventE@Base 3.1.0
 _ZTSN9QInfinity8InfTimerE@Base 3.1.0
 _ZTSN9QInfinity8NodeItemE@Base 3.1.0
 _ZTSN9QInfinity8QGObjectE@Base 3.1.0
 _ZTSN9QInfinity8QGSignalE@Base 3.1.0
 _ZTSN9QInfinity8UserItemE@Base 3.1.0
 _ZTSN9QInfinity9QtIoWatchE@Base 3.1.0
 _ZTSN9QInfinity9UserTableE@Base 3.1.0
 _ZTVN9QInfinity10NotePluginE@Base 3.1.0
 _ZTVN9QInfinity10TextBufferE@Base 3.1.0
 _ZTVN9QInfinity10UsersModelE@Base 3.1.0
 _ZTVN9QInfinity11AdoptedUserE@Base 3.1.0
 _ZTVN9QInfinity11NodeRequestE@Base 3.1.0
 _ZTVN9QInfinity11TextSessionE@Base 3.1.0
 _ZTVN9QInfinity11UserRequestE@Base 3.1.0
 _ZTVN9QInfinity12BrowserModelE@Base 3.1.0
 _ZTVN9QInfinity12SessionProxyE@Base 3.1.0
 _ZTVN9QInfinity12UndoGroupingE@Base 3.1.0
 _ZTVN9QInfinity12WrapperStoreE@Base 3.1.0
 _ZTVN9QInfinity13TcpConnectionE@Base 3.1.0
 _ZTVN9QInfinity13XmlConnectionE@Base 3.1.0
 _ZTVN9QInfinity14AdoptedSessionE@Base 3.1.0
 _ZTVN9QInfinity14ConnectionItemE@Base 3.1.0
 _ZTVN9QInfinity14ExploreRequestE@Base 3.1.0
 _ZTVN9QInfinity14XmppConnectionE@Base 3.1.0
 _ZTVN9QInfinity15UserItemFactoryE@Base 3.1.0
 _ZTVN9QInfinity17DefaultTextPluginE@Base 3.1.0
 _ZTVN9QInfinity17TextDefaultBufferE@Base 3.1.0
 _ZTVN9QInfinity18AbstractTextBufferE@Base 3.1.0
 _ZTVN9QInfinity18BrowserItemFactoryE@Base 3.1.0
 _ZTVN9QInfinity20CommunicationManagerE@Base 3.1.0
 _ZTVN9QInfinity22CertificateCredentialsE@Base 3.1.0
 _ZTVN9QInfinity24CommunicationJoinedGroupE@Base 3.1.0
 _ZTVN9QInfinity4QtIoE@Base 3.1.0
 _ZTVN9QInfinity4UserE@Base 3.1.0
 _ZTVN9QInfinity6BufferE@Base 3.1.0
 _ZTVN9QInfinity7BrowserE@Base 3.1.0
 _ZTVN9QInfinity7RequestE@Base 3.1.0
 _ZTVN9QInfinity7SessionE@Base 3.1.0
 _ZTVN9QInfinity8InfEventE@Base 3.1.0
 _ZTVN9QInfinity8InfTimerE@Base 3.1.0
 _ZTVN9QInfinity8NodeItemE@Base 3.1.0
 _ZTVN9QInfinity8QGObjectE@Base 3.1.0
 _ZTVN9QInfinity8QGSignalE@Base 3.1.0
 _ZTVN9QInfinity8UserItemE@Base 3.1.0
 _ZTVN9QInfinity9QtIoWatchE@Base 3.1.0
 _ZTVN9QInfinity9UserTableE@Base 3.1.0
 (c++)"non-virtual thunk to QInfinity::ConnectionItem::~ConnectionItem()@Base" 3.1.0
 qinf_text_abstract_buffer_get_type@Base 3.1.0
